target datalayout = "e-m:e-p270:32:32-p271:32:32-p272:64:64-i64:64-i128:128-f80:128-n8:16:32:64-S128"
target triple = "x86_64-pc-linux-gnu"

; Function Attrs: nounwind uwtable
define hidden i32 @luaO_log2(i32 noundef %0) #0 {
  %2 = alloca i32, align 4
  %3 = alloca i32, align 4
  store i32 %0, ptr %2, align 4, !tbaa !4
  call void @llvm.lifetime.start.p0(i64 4, ptr %3) #7
  store i32 -1, ptr %3, align 4, !tbaa !4
  br label %4

4:                                                ; preds = %7, %1
  %5 = load i32, ptr %2, align 4, !tbaa !4
  %6 = icmp uge i32 %5, 256
  br i1 %6, label %7, label %12

7:                                                ; preds = %4
  %8 = load i32, ptr %3, align 4, !tbaa !4
  %9 = add nsw i32 %8, 8
  store i32 %9, ptr %3, align 4, !tbaa !4
  %10 = load i32, ptr %2, align 4, !tbaa !4
  %11 = lshr i32 %10, 8
  store i32 %11, ptr %2, align 4, !tbaa !4
  br label %4, !llvm.loop !10

12:                                               ; preds = %4
  %13 = load i32, ptr %3, align 4, !tbaa !4
  %14 = load i32, ptr %2, align 4, !tbaa !4
  %15 = zext i32 %14 to i64
  %16 = getelementptr inbounds nuw [256 x i8], ptr @luaO_log2.log_2, i64 0, i64 %15
  %17 = load i8, ptr %16, align 1, !tbaa !11
  %18 = zext i8 %17 to i32
  %19 = add nsw i32 %13, %18
  call void @llvm.lifetime.end.p0(i64 4, ptr %3) #7
  ret i32 %19
}