; Function Attrs: nofree norecurse nosync nounwind memory(none) uwtable
define hidden range(i32 -2147483640, -2147483648) i32 @luaO_log2(i32 noundef %0) local_unnamed_addr #0 {
  %2 = icmp ugt i32 %0, 255
  br i1 %2, label %.lr.ph, label %._crit_edge

.lr.ph:                                           ; preds = %1, %.lr.ph
  %.07 = phi i32 [ %3, %.lr.ph ], [ -1, %1 ]
  %.056 = phi i32 [ %4, %.lr.ph ], [ %0, %1 ]
  %3 = add nsw i32 %.07, 8
  %4 = lshr i32 %.056, 8
  %5 = icmp ugt i32 %.056, 65535
  br i1 %5, label %.lr.ph, label %._crit_edge, !llvm.loop !6

._crit_edge:                                      ; preds = %.lr.ph, %1
  %.05.lcssa = phi i32 [ %0, %1 ], [ %4, %.lr.ph ]
  %.0.lcssa = phi i32 [ -1, %1 ], [ %3, %.lr.ph ]
  %6 = zext nneg i32 %.05.lcssa to i64
  %7 = getelementptr inbounds nuw [256 x i8], ptr @luaO_log2.log_2, i64 0, i64 %6
  %8 = load i8, ptr %7, align 1, !tbaa !7
  %9 = zext i8 %8 to i32
  %10 = add nsw i32 %.0.lcssa, %9
  ret i32 %10
}